target datalayout = "e-m:e-p270:32:32-p271:32:32-p272:64:64-i64:64-i128:128-f80:128-n8:16:32:64-S128"
target triple = "x86_64-pc-linux-gnu"

; Function Attrs: nounwind uwtable
define i32 @Dau_DecReadSet(ptr noundef %0) #0 {
  %2 = alloca ptr, align 8
  %3 = alloca i32, align 4
  %4 = alloca i32, align 4
  store ptr %0, ptr %2, align 8, !tbaa !32
  call void @llvm.lifetime.start.p0(i64 4, ptr %3) #11
  store i32 0, ptr %3, align 4, !tbaa !8
  call void @llvm.lifetime.start.p0(i64 4, ptr %4) #11
  store i32 0, ptr %4, align 4, !tbaa !8
  br label %5

5:                                                ; preds = %82, %1
  %6 = load ptr, ptr %2, align 8, !tbaa !32
  %7 = load i32, ptr %4, align 4, !tbaa !8
  %8 = sext i32 %7 to i64
  %9 = getelementptr inbounds i8, ptr %6, i64 %8
  %10 = load i8, ptr %9, align 1, !tbaa !34
  %11 = icmp ne i8 %10, 0
  br i1 %11, label %12, label %85

12:                                               ; preds = %5
  %13 = load ptr, ptr %2, align 8, !tbaa !32
  %14 = load i32, ptr %4, align 4, !tbaa !8
  %15 = sext i32 %14 to i64
  %16 = getelementptr inbounds i8, ptr %13, i64 %15
  %17 = load i8, ptr %16, align 1, !tbaa !34
  %18 = sext i8 %17 to i32
  %19 = icmp sge i32 %18, 97
  br i1 %19, label %20, label %40

20:                                               ; preds = %12
  %21 = load ptr, ptr %2, align 8, !tbaa !32
  %22 = load i32, ptr %4, align 4, !tbaa !8
  %23 = sext i32 %22 to i64
  %24 = getelementptr inbounds i8, ptr %21, i64 %23
  %25 = load i8, ptr %24, align 1, !tbaa !34
  %26 = sext i8 %25 to i32
  %27 = icmp sle i32 %26, 122
  br i1 %27, label %28, label %40

28:                                               ; preds = %20
  %29 = load ptr, ptr %2, align 8, !tbaa !32
  %30 = load i32, ptr %4, align 4, !tbaa !8
  %31 = sext i32 %30 to i64
  %32 = getelementptr inbounds i8, ptr %29, i64 %31
  %33 = load i8, ptr %32, align 1, !tbaa !34
  %34 = sext i8 %33 to i32
  %35 = sub nsw i32 %34, 97
  %36 = shl i32 %35, 1
  %37 = shl i32 1, %36
  %38 = load i32, ptr %3, align 4, !tbaa !8
  %39 = or i32 %38, %37
  store i32 %39, ptr %3, align 4, !tbaa !8
  br label %81

40:                                               ; preds = %20, %12
  %41 = load ptr, ptr %2, align 8, !tbaa !32
  %42 = load i32, ptr %4, align 4, !tbaa !8
  %43 = sext i32 %42 to i64
  %44 = getelementptr inbounds i8, ptr %41, i64 %43
  %45 = load i8, ptr %44, align 1, !tbaa !34
  %46 = sext i8 %45 to i32
  %47 = icmp sge i32 %46, 65
  br i1 %47, label %48, label %79

48:                                               ; preds = %40
  %49 = load ptr, ptr %2, align 8, !tbaa !32
  %50 = load i32, ptr %4, align 4, !tbaa !8
  %51 = sext i32 %50 to i64
  %52 = getelementptr inbounds i8, ptr %49, i64 %51
  %53 = load i8, ptr %52, align 1, !tbaa !34
  %54 = sext i8 %53 to i32
  %55 = icmp sle i32 %54, 90
  br i1 %55, label %56, label %79

56:                                               ; preds = %48
  %57 = load ptr, ptr %2, align 8, !tbaa !32
  %58 = load i32, ptr %4, align 4, !tbaa !8
  %59 = sext i32 %58 to i64
  %60 = getelementptr inbounds i8, ptr %57, i64 %59
  %61 = load i8, ptr %60, align 1, !tbaa !34
  %62 = sext i8 %61 to i32
  %63 = sub nsw i32 %62, 97
  %64 = shl i32 %63, 1
  %65 = shl i32 1, %64
  %66 = load ptr, ptr %2, align 8, !tbaa !32
  %67 = load i32, ptr %4, align 4, !tbaa !8
  %68 = sext i32 %67 to i64
  %69 = getelementptr inbounds i8, ptr %66, i64 %68
  %70 = load i8, ptr %69, align 1, !tbaa !34
  %71 = sext i8 %70 to i32
  %72 = sub nsw i32 %71, 97
  %73 = shl i32 %72, 1
  %74 = add nsw i32 %73, 1
  %75 = shl i32 1, %74
  %76 = or i32 %65, %75
  %77 = load i32, ptr %3, align 4, !tbaa !8
  %78 = or i32 %77, %76
  store i32 %78, ptr %3, align 4, !tbaa !8
  br label %80

79:                                               ; preds = %48, %40
  br label %85

80:                                               ; preds = %56
  br label %81

81:                                               ; preds = %80, %28
  br label %82

82:                                               ; preds = %81
  %83 = load i32, ptr %4, align 4, !tbaa !8
  %84 = add nsw i32 %83, 1
  store i32 %84, ptr %4, align 4, !tbaa !8
  br label %5, !llvm.loop !35

85:                                               ; preds = %79, %5
  %86 = load i32, ptr %3, align 4, !tbaa !8
  call void @llvm.lifetime.end.p0(i64 4, ptr %4) #11
  call void @llvm.lifetime.end.p0(i64 4, ptr %3) #11
  ret i32 %86
}