; Function Attrs: nofree norecurse nosync nounwind memory(argmem: read) uwtable
define i32 @Dau_DecReadSet(ptr noundef readonly captures(none) %0) local_unnamed_addr #8 {
  %2 = load i8, ptr %0, align 1, !tbaa !31
  %.not25 = icmp eq i8 %2, 0
  br i1 %.not25, label %._crit_edge, label %.lr.ph

.lr.ph:                                           ; preds = %1, %11
  %indvars.iv = phi i64 [ %indvars.iv.next, %11 ], [ 0, %1 ]
  %3 = phi i8 [ %13, %11 ], [ %2, %1 ]
  %.01926 = phi i32 [ %.1, %11 ], [ 0, %1 ]
  %4 = add i8 %3, -97
  %or.cond = icmp ult i8 %4, 26
  br i1 %or.cond, label %5, label %9

5:                                                ; preds = %.lr.ph
  %6 = shl nuw nsw i8 %4, 1
  %7 = zext nneg i8 %6 to i32
  %8 = shl nuw i32 1, %7
  br label %11

9:                                                ; preds = %.lr.ph
  %10 = add i8 %3, -65
  %or.cond24 = icmp ult i8 %10, 26
  br i1 %or.cond24, label %11, label %._crit_edge

11:                                               ; preds = %9, %5
  %.pn = phi i32 [ %8, %5 ], [ poison, %9 ]
  %.1 = or i32 %.pn, %.01926
  %indvars.iv.next = add nuw nsw i64 %indvars.iv, 1
  %12 = getelementptr inbounds nuw i8, ptr %0, i64 %indvars.iv.next
  %13 = load i8, ptr %12, align 1, !tbaa !31
  %.not = icmp eq i8 %13, 0
  br i1 %.not, label %._crit_edge, label %.lr.ph, !llvm.loop !32

._crit_edge:                                      ; preds = %11, %9, %1
  %.019.lcssa = phi i32 [ 0, %1 ], [ %.01926, %9 ], [ %.1, %11 ]
  ret i32 %.019.lcssa
}